; Function Attrs: mustprogress uwtable
define dso_local noundef ptr @_ZN4Luau12Substitution7replaceEPKNS_11TypePackVarE(ptr noundef nonnull readonly align 8 captures(none) dereferenceable(472) %0, ptr noundef %1) local_unnamed_addr #2 align 2 {
  %3 = getelementptr inbounds nuw i8, ptr %0, i64 144
  %4 = load ptr, ptr %3, align 8, !tbaa !61
  %5 = tail call noundef ptr @_ZNK4Luau6TxnLog6followEPKNS_11TypePackVarE(ptr noundef nonnull align 8 dereferenceable(128) %4, ptr noundef %1)
  %6 = getelementptr inbounds nuw i8, ptr %0, i64 272
  %7 = getelementptr inbounds nuw i8, ptr %0, i64 288
  %8 = load i64, ptr %7, align 8, !tbaa !226
  %9 = icmp eq i64 %8, 0
  br i1 %9, label %_ZN4Luau12DenseHashMapIPKNS_11TypePackVarES3_NS_16DenseHashPointerESt8equal_toIS3_EE4findERKS3_.exit.cont, label %10

10:                                               ; preds = %2
  %11 = getelementptr inbounds nuw i8, ptr %0, i64 296
  %12 = load ptr, ptr %11, align 8, !tbaa !33
  %13 = icmp eq ptr %5, %12
  br i1 %13, label %_ZN4Luau12DenseHashMapIPKNS_11TypePackVarES3_NS_16DenseHashPointerESt8equal_toIS3_EE4findERKS3_.exit.cont, label %14

14:                                               ; preds = %10
  %15 = getelementptr inbounds nuw i8, ptr %0, i64 280
  %16 = load i64, ptr %15, align 8, !tbaa !217
  %17 = add i64 %16, -1
  %18 = ptrtoint ptr %5 to i64
  %19 = lshr i64 %18, 4
  %20 = lshr i64 %18, 9
  %21 = xor i64 %19, %20
  %22 = load ptr, ptr %6, align 8, !tbaa !218
  br label %23

23:                                               ; preds = %29, %14
  %.pn.i.i = phi i64 [ %21, %14 ], [ %31, %29 ]
  %.02028.i.i = phi i64 [ 0, %14 ], [ %30, %29 ]
  %.02129.i.i = and i64 %.pn.i.i, %17
  %24 = getelementptr inbounds nuw %"struct.std::pair.157", ptr %22, i64 %.02129.i.i
  %25 = load ptr, ptr %24, align 8, !tbaa !33
  %26 = icmp eq ptr %25, %5
  br i1 %26, label %_ZN4Luau12DenseHashMapIPKNS_11TypePackVarES3_NS_16DenseHashPointerESt8equal_toIS3_EE4findERKS3_.exit.else, label %27

27:                                               ; preds = %23
  %28 = icmp eq ptr %25, %12
  br i1 %28, label %_ZN4Luau12DenseHashMapIPKNS_11TypePackVarES3_NS_16DenseHashPointerESt8equal_toIS3_EE4findERKS3_.exit.cont, label %29

29:                                               ; preds = %27
  %30 = add i64 %.02028.i.i, 1
  %31 = add i64 %30, %.02129.i.i
  %.not.i.i = icmp ugt i64 %30, %17
  br i1 %.not.i.i, label %_ZN4Luau12DenseHashMapIPKNS_11TypePackVarES3_NS_16DenseHashPointerESt8equal_toIS3_EE4findERKS3_.exit.cont, label %23, !llvm.loop !227

_ZN4Luau12DenseHashMapIPKNS_11TypePackVarES3_NS_16DenseHashPointerESt8equal_toIS3_EE4findERKS3_.exit.else: ; preds = %23
  %32 = getelementptr inbounds nuw i8, ptr %24, i64 8
  %.0.else.val = load ptr, ptr %32, align 8, !tbaa !33
  br label %_ZN4Luau12DenseHashMapIPKNS_11TypePackVarES3_NS_16DenseHashPointerESt8equal_toIS3_EE4findERKS3_.exit.cont

_ZN4Luau12DenseHashMapIPKNS_11TypePackVarES3_NS_16DenseHashPointerESt8equal_toIS3_EE4findERKS3_.exit.cont: ; preds = %27, %29, %10, %2, %_ZN4Luau12DenseHashMapIPKNS_11TypePackVarES3_NS_16DenseHashPointerESt8equal_toIS3_EE4findERKS3_.exit.else
  %.0 = phi ptr [ %.0.else.val, %_ZN4Luau12DenseHashMapIPKNS_11TypePackVarES3_NS_16DenseHashPointerESt8equal_toIS3_EE4findERKS3_.exit.else ], [ %5, %2 ], [ %5, %10 ], [ %5, %29 ], [ %5, %27 ]
  ret ptr %.0
}